target datalayout = "e-m:e-p270:32:32-p271:32:32-p272:64:64-i64:64-i128:128-f80:128-n8:16:32:64-S128"
target triple = "x86_64-pc-linux-gnu"

%struct.CordRep = type { %struct.Generic, %union.ConcatOrFunc }
%struct.Generic = type { i8, i8, i8, i8, i64 }
%union.ConcatOrFunc = type { %struct.Concatenation }
%struct.Concatenation = type { ptr, ptr }
%struct.Function = type { ptr, ptr }
%struct.CORD_Pos = type { i64, i32, ptr, i64, i64, [49 x %struct.CORD_pe], [8 x i8] }
%struct.CORD_pe = type { ptr, i64 }

@stderr = external global ptr, align 8
@.str = private unnamed_addr constant [4 x i8] c"%s\0A\00", align 1
@.str.6 = private unnamed_addr constant [28 x i8] c"CORD_next: invalid argument\00", align 1

; Function Attrs: nounwind uwtable
define void @CORD__next(ptr noundef %0) #0 {
  %2 = alloca ptr, align 8
  %3 = alloca i64, align 8
  %4 = alloca ptr, align 8
  %5 = alloca ptr, align 8
  %6 = alloca ptr, align 8
  %7 = alloca i64, align 8
  %8 = alloca i64, align 8
  %9 = alloca i64, align 8
  %10 = alloca i64, align 8
  %11 = alloca ptr, align 8
  %12 = alloca ptr, align 8
  %13 = alloca i32, align 4
  store ptr %0, ptr %2, align 8, !tbaa !53
  call void @llvm.lifetime.start.p0(i64 8, ptr %3) #9
  %14 = load ptr, ptr %2, align 8, !tbaa !53
  %15 = getelementptr inbounds %struct.CORD_Pos, ptr %14, i64 0
  %16 = getelementptr inbounds nuw %struct.CORD_Pos, ptr %15, i32 0, i32 0
  %17 = load i64, ptr %16, align 8, !tbaa !61
  %18 = add i64 %17, 1
  store i64 %18, ptr %3, align 8, !tbaa !13
  call void @llvm.lifetime.start.p0(i64 8, ptr %4) #9
  call void @llvm.lifetime.start.p0(i64 8, ptr %5) #9
  %19 = load ptr, ptr %2, align 8, !tbaa !53
  %20 = getelementptr inbounds %struct.CORD_Pos, ptr %19, i64 0
  %21 = getelementptr inbounds nuw %struct.CORD_Pos, ptr %20, i32 0, i32 1
  %22 = load i32, ptr %21, align 8, !tbaa !55
  %23 = icmp ne i32 %22, 1431655765
  br i1 %23, label %27, label %24

24:                                               ; preds = %1
  %25 = load ptr, ptr @stderr, align 8, !tbaa !9
  %26 = call i32 (ptr, ptr, ...) @fprintf(ptr noundef %25, ptr noundef @.str, ptr noundef @.str.6) #9
  call void @abort() #12
  unreachable

27:                                               ; preds = %1
  %28 = load ptr, ptr %2, align 8, !tbaa !53
  %29 = getelementptr inbounds %struct.CORD_Pos, ptr %28, i64 0
  %30 = getelementptr inbounds nuw %struct.CORD_Pos, ptr %29, i32 0, i32 5
  %31 = load ptr, ptr %2, align 8, !tbaa !53
  %32 = getelementptr inbounds %struct.CORD_Pos, ptr %31, i64 0
  %33 = getelementptr inbounds nuw %struct.CORD_Pos, ptr %32, i32 0, i32 1
  %34 = load i32, ptr %33, align 8, !tbaa !55
  %35 = sext i32 %34 to i64
  %36 = getelementptr inbounds [49 x %struct.CORD_pe], ptr %30, i64 0, i64 %35
  store ptr %36, ptr %4, align 8, !tbaa !57
  %37 = load ptr, ptr %4, align 8, !tbaa !57
  %38 = getelementptr inbounds nuw %struct.CORD_pe, ptr %37, i32 0, i32 0
  %39 = load ptr, ptr %38, align 8, !tbaa !59
  store ptr %39, ptr %5, align 8, !tbaa !7
  %40 = load i64, ptr %3, align 8, !tbaa !13
  %41 = load ptr, ptr %2, align 8, !tbaa !53
  %42 = getelementptr inbounds %struct.CORD_Pos, ptr %41, i64 0
  %43 = getelementptr inbounds nuw %struct.CORD_Pos, ptr %42, i32 0, i32 0
  store i64 %40, ptr %43, align 8, !tbaa !61
  %44 = load ptr, ptr %5, align 8, !tbaa !7
  %45 = load i8, ptr %44, align 1, !tbaa !17
  %46 = sext i8 %45 to i32
  %47 = icmp ne i32 %46, 0
  br i1 %47, label %122, label %48

48:                                               ; preds = %27
  call void @llvm.lifetime.start.p0(i64 8, ptr %6) #9
  %49 = load ptr, ptr %5, align 8, !tbaa !7
  %50 = getelementptr inbounds nuw %struct.CordRep, ptr %49, i32 0, i32 1
  store ptr %50, ptr %6, align 8, !tbaa !29
  call void @llvm.lifetime.start.p0(i64 8, ptr %7) #9
  %51 = load ptr, ptr %4, align 8, !tbaa !57
  %52 = getelementptr inbounds nuw %struct.CORD_pe, ptr %51, i32 0, i32 1
  %53 = load i64, ptr %52, align 8, !tbaa !62
  store i64 %53, ptr %7, align 8, !tbaa !13
  call void @llvm.lifetime.start.p0(i64 8, ptr %8) #9
  %54 = load i64, ptr %7, align 8, !tbaa !13
  %55 = load ptr, ptr %5, align 8, !tbaa !7
  %56 = getelementptr inbounds nuw %struct.CordRep, ptr %55, i32 0, i32 0
  %57 = getelementptr inbounds nuw %struct.Generic, ptr %56, i32 0, i32 4
  %58 = load i64, ptr %57, align 8, !tbaa !24
  %59 = add i64 %54, %58
  store i64 %59, ptr %8, align 8, !tbaa !13
  %60 = load i64, ptr %3, align 8, !tbaa !13
  %61 = load i64, ptr %8, align 8, !tbaa !13
  %62 = icmp ult i64 %60, %61
  br i1 %62, label %63, label %118

63:                                               ; preds = %48
  call void @llvm.lifetime.start.p0(i64 8, ptr %9) #9
  call void @llvm.lifetime.start.p0(i64 8, ptr %10) #9
  store i64 8, ptr %10, align 8, !tbaa !13
  call void @llvm.lifetime.start.p0(i64 8, ptr %11) #9
  %64 = load ptr, ptr %6, align 8, !tbaa !29
  %65 = getelementptr inbounds nuw %struct.Function, ptr %64, i32 0, i32 0
  %66 = load ptr, ptr %65, align 8, !tbaa !31
  store ptr %66, ptr %11, align 8, !tbaa !3
  call void @llvm.lifetime.start.p0(i64 8, ptr %12) #9
  %67 = load ptr, ptr %6, align 8, !tbaa !29
  %68 = getelementptr inbounds nuw %struct.Function, ptr %67, i32 0, i32 1
  %69 = load ptr, ptr %68, align 8, !tbaa !33
  store ptr %69, ptr %12, align 8, !tbaa !3
  %70 = load i64, ptr %8, align 8, !tbaa !13
  %71 = load i64, ptr %3, align 8, !tbaa !13
  %72 = sub i64 %70, %71
  %73 = icmp ult i64 %72, 8
  br i1 %73, label %74, label %78

74:                                               ; preds = %63
  %75 = load i64, ptr %8, align 8, !tbaa !13
  %76 = load i64, ptr %3, align 8, !tbaa !13
  %77 = sub i64 %75, %76
  store i64 %77, ptr %10, align 8, !tbaa !13
  br label %78

78:                                               ; preds = %74, %63
  store i64 0, ptr %9, align 8, !tbaa !13
  br label %79

79:                                               ; preds = %97, %78
  %80 = load i64, ptr %9, align 8, !tbaa !13
  %81 = load i64, ptr %10, align 8, !tbaa !13
  %82 = icmp ult i64 %80, %81
  br i1 %82, label %83, label %100

83:                                               ; preds = %79
  %84 = load ptr, ptr %11, align 8, !tbaa !3
  %85 = load i64, ptr %9, align 8, !tbaa !13
  %86 = load i64, ptr %3, align 8, !tbaa !13
  %87 = add i64 %85, %86
  %88 = load i64, ptr %7, align 8, !tbaa !13
  %89 = sub i64 %87, %88
  %90 = load ptr, ptr %12, align 8, !tbaa !3
  %91 = call signext i8 %84(i64 noundef %89, ptr noundef %90)
  %92 = load ptr, ptr %2, align 8, !tbaa !53
  %93 = getelementptr inbounds %struct.CORD_Pos, ptr %92, i64 0
  %94 = getelementptr inbounds nuw %struct.CORD_Pos, ptr %93, i32 0, i32 6
  %95 = load i64, ptr %9, align 8, !tbaa !13
  %96 = getelementptr inbounds nuw [8 x i8], ptr %94, i64 0, i64 %95
  store i8 %91, ptr %96, align 1, !tbaa !17
  br label %97

97:                                               ; preds = %83
  %98 = load i64, ptr %9, align 8, !tbaa !13
  %99 = add i64 %98, 1
  store i64 %99, ptr %9, align 8, !tbaa !13
  br label %79, !llvm.loop !63

100:                                              ; preds = %79
  %101 = load i64, ptr %3, align 8, !tbaa !13
  %102 = load ptr, ptr %2, align 8, !tbaa !53
  %103 = getelementptr inbounds %struct.CORD_Pos, ptr %102, i64 0
  %104 = getelementptr inbounds nuw %struct.CORD_Pos, ptr %103, i32 0, i32 3
  store i64 %101, ptr %104, align 8, !tbaa !64
  %105 = load ptr, ptr %2, align 8, !tbaa !53
  %106 = getelementptr inbounds %struct.CORD_Pos, ptr %105, i64 0
  %107 = getelementptr inbounds nuw %struct.CORD_Pos, ptr %106, i32 0, i32 6
  %108 = getelementptr inbounds [8 x i8], ptr %107, i64 0, i64 0
  %109 = load ptr, ptr %2, align 8, !tbaa !53
  %110 = getelementptr inbounds %struct.CORD_Pos, ptr %109, i64 0
  %111 = getelementptr inbounds nuw %struct.CORD_Pos, ptr %110, i32 0, i32 2
  store ptr %108, ptr %111, align 8, !tbaa !65
  %112 = load i64, ptr %3, align 8, !tbaa !13
  %113 = load i64, ptr %10, align 8, !tbaa !13
  %114 = add i64 %112, %113
  %115 = load ptr, ptr %2, align 8, !tbaa !53
  %116 = getelementptr inbounds %struct.CORD_Pos, ptr %115, i64 0
  %117 = getelementptr inbounds nuw %struct.CORD_Pos, ptr %116, i32 0, i32 4
  store i64 %114, ptr %117, align 8, !tbaa !66
  store i32 1, ptr %13, align 4
  call void @llvm.lifetime.end.p0(i64 8, ptr %12) #9
  call void @llvm.lifetime.end.p0(i64 8, ptr %11) #9
  call void @llvm.lifetime.end.p0(i64 8, ptr %10) #9
  call void @llvm.lifetime.end.p0(i64 8, ptr %9) #9
  br label %119

118:                                              ; preds = %48
  store i32 0, ptr %13, align 4
  br label %119

119:                                              ; preds = %118, %100
  call void @llvm.lifetime.end.p0(i64 8, ptr %8) #9
  call void @llvm.lifetime.end.p0(i64 8, ptr %7) #9
  call void @llvm.lifetime.end.p0(i64 8, ptr %6) #9
  %120 = load i32, ptr %13, align 4
  switch i32 %120, label %166 [
    i32 0, label %121
  ]

121:                                              ; preds = %119
  br label %122

122:                                              ; preds = %121, %27
  br label %123

123:                                              ; preds = %141, %122
  %124 = load ptr, ptr %2, align 8, !tbaa !53
  %125 = getelementptr inbounds %struct.CORD_Pos, ptr %124, i64 0
  %126 = getelementptr inbounds nuw %struct.CORD_Pos, ptr %125, i32 0, i32 1
  %127 = load i32, ptr %126, align 8, !tbaa !55
  %128 = icmp sgt i32 %127, 0
  br i1 %128, label %129, label %139

129:                                              ; preds = %123
  %130 = load ptr, ptr %4, align 8, !tbaa !57
  %131 = getelementptr inbounds %struct.CORD_pe, ptr %130, i64 0
  %132 = getelementptr inbounds nuw %struct.CORD_pe, ptr %131, i32 0, i32 1
  %133 = load i64, ptr %132, align 8, !tbaa !62
  %134 = load ptr, ptr %4, align 8, !tbaa !57
  %135 = getelementptr inbounds %struct.CORD_pe, ptr %134, i64 -1
  %136 = getelementptr inbounds nuw %struct.CORD_pe, ptr %135, i32 0, i32 1
  %137 = load i64, ptr %136, align 8, !tbaa !62
  %138 = icmp ne i64 %133, %137
  br label %139

139:                                              ; preds = %129, %123
  %140 = phi i1 [ false, %123 ], [ %138, %129 ]
  br i1 %140, label %141, label %149

141:                                              ; preds = %139
  %142 = load ptr, ptr %2, align 8, !tbaa !53
  %143 = getelementptr inbounds %struct.CORD_Pos, ptr %142, i64 0
  %144 = getelementptr inbounds nuw %struct.CORD_Pos, ptr %143, i32 0, i32 1
  %145 = load i32, ptr %144, align 8, !tbaa !55
  %146 = add nsw i32 %145, -1
  store i32 %146, ptr %144, align 8, !tbaa !55
  %147 = load ptr, ptr %4, align 8, !tbaa !57
  %148 = getelementptr inbounds %struct.CORD_pe, ptr %147, i32 -1
  store ptr %148, ptr %4, align 8, !tbaa !57
  br label %123, !llvm.loop !67

149:                                              ; preds = %139
  %150 = load ptr, ptr %2, align 8, !tbaa !53
  %151 = getelementptr inbounds %struct.CORD_Pos, ptr %150, i64 0
  %152 = getelementptr inbounds nuw %struct.CORD_Pos, ptr %151, i32 0, i32 1
  %153 = load i32, ptr %152, align 8, !tbaa !55
  %154 = icmp eq i32 %153, 0
  br i1 %154, label %155, label %159

155:                                              ; preds = %149
  %156 = load ptr, ptr %2, align 8, !tbaa !53
  %157 = getelementptr inbounds %struct.CORD_Pos, ptr %156, i64 0
  %158 = getelementptr inbounds nuw %struct.CORD_Pos, ptr %157, i32 0, i32 1
  store i32 1431655765, ptr %158, align 8, !tbaa !55
  store i32 1, ptr %13, align 4
  br label %166

159:                                              ; preds = %149
  %160 = load ptr, ptr %2, align 8, !tbaa !53
  %161 = getelementptr inbounds %struct.CORD_Pos, ptr %160, i64 0
  %162 = getelementptr inbounds nuw %struct.CORD_Pos, ptr %161, i32 0, i32 1
  %163 = load i32, ptr %162, align 8, !tbaa !55
  %164 = add nsw i32 %163, -1
  store i32 %164, ptr %162, align 8, !tbaa !55
  %165 = load ptr, ptr %2, align 8, !tbaa !53
  call void @CORD_extend_path(ptr noundef %165)
  store i32 0, ptr %13, align 4
  br label %166

166:                                              ; preds = %159, %155, %119
  call void @llvm.lifetime.end.p0(i64 8, ptr %5) #9
  call void @llvm.lifetime.end.p0(i64 8, ptr %4) #9
  call void @llvm.lifetime.end.p0(i64 8, ptr %3) #9
  %167 = load i32, ptr %13, align 4
  switch i32 %167, label %169 [
    i32 0, label %168
    i32 1, label %168
  ]

168:                                              ; preds = %166, %166
  ret void

169:                                              ; preds = %166
  unreachable
}