; Function Attrs: nounwind uwtable
define void @CORD__next(ptr noundef %0) local_unnamed_addr #2 {
  %2 = load i64, ptr %0, align 8, !tbaa !52
  %3 = add i64 %2, 1
  %4 = getelementptr inbounds nuw i8, ptr %0, i64 8
  %5 = load i32, ptr %4, align 8, !tbaa !47
  %.not = icmp eq i32 %5, 1431655765
  br i1 %.not, label %6, label %9

6:                                                ; preds = %1
  %7 = load ptr, ptr @stderr, align 8, !tbaa !7
  %8 = tail call i32 (ptr, ptr, ...) @fprintf(ptr noundef %7, ptr noundef nonnull @.str, ptr noundef nonnull @.str.6) #20
  tail call void @abort() #21
  unreachable

9:                                                ; preds = %1
  %10 = getelementptr inbounds nuw i8, ptr %0, i64 40
  %11 = sext i32 %5 to i64
  %12 = getelementptr inbounds [49 x %struct.CORD_pe], ptr %10, i64 0, i64 %11
  %13 = load ptr, ptr %12, align 8, !tbaa !50
  store i64 %3, ptr %0, align 8, !tbaa !52
  %14 = load i8, ptr %13, align 1, !tbaa !11
  %.not55 = icmp eq i8 %14, 0
  br i1 %.not55, label %15, label %.critedge59

15:                                               ; preds = %9
  %16 = getelementptr inbounds nuw i8, ptr %12, i64 8
  %17 = load i64, ptr %16, align 8, !tbaa !53
  %18 = getelementptr inbounds nuw i8, ptr %13, i64 8
  %19 = load i64, ptr %18, align 8, !tbaa !17
  %20 = add i64 %19, %17
  %.not56 = icmp ult i64 %3, %20
  br i1 %.not56, label %.lr.ph63, label %.critedge59

.lr.ph63:                                         ; preds = %15
  %21 = getelementptr inbounds nuw i8, ptr %13, i64 16
  %22 = load ptr, ptr %21, align 8, !tbaa !23
  %23 = getelementptr inbounds nuw i8, ptr %13, i64 24
  %24 = load ptr, ptr %23, align 8, !tbaa !25
  %25 = sub nuw i64 %20, %3
  %spec.select = tail call i64 @llvm.umin.i64(i64 %25, i64 8)
  %26 = sub i64 %3, %17
  %27 = getelementptr inbounds nuw i8, ptr %0, i64 824
  %umax = tail call i64 @llvm.umax.i64(i64 %spec.select, i64 1)
  br label %28

28:                                               ; preds = %.lr.ph63, %28
  %.04762 = phi i64 [ 0, %.lr.ph63 ], [ %32, %28 ]
  %29 = add i64 %26, %.04762
  %30 = tail call signext i8 %22(i64 noundef %29, ptr noundef %24) #17
  %31 = getelementptr inbounds nuw [8 x i8], ptr %27, i64 0, i64 %.04762
  store i8 %30, ptr %31, align 1, !tbaa !11
  %32 = add nuw nsw i64 %.04762, 1
  %exitcond.not = icmp eq i64 %32, %umax
  br i1 %exitcond.not, label %._crit_edge, label %28, !llvm.loop !54

._crit_edge:                                      ; preds = %28
  %33 = getelementptr inbounds nuw i8, ptr %0, i64 24
  store i64 %3, ptr %33, align 8, !tbaa !55
  %34 = getelementptr inbounds nuw i8, ptr %0, i64 824
  %35 = getelementptr inbounds nuw i8, ptr %0, i64 16
  store ptr %34, ptr %35, align 8, !tbaa !56
  %36 = add i64 %spec.select, %3
  %37 = getelementptr inbounds nuw i8, ptr %0, i64 32
  store i64 %36, ptr %37, align 8, !tbaa !57
  br label %51

.critedge59:                                      ; preds = %15, %9
  %38 = icmp sgt i32 %5, 0
  br i1 %38, label %.lr.ph, label %.critedge

.lr.ph:                                           ; preds = %.critedge59, %44
  %.04661 = phi ptr [ %45, %44 ], [ %12, %.critedge59 ]
  %39 = phi i32 [ %46, %44 ], [ %5, %.critedge59 ]
  %40 = getelementptr inbounds nuw i8, ptr %.04661, i64 8
  %41 = load i64, ptr %40, align 8, !tbaa !53
  %42 = getelementptr inbounds i8, ptr %.04661, i64 -8
  %43 = load i64, ptr %42, align 8, !tbaa !53
  %.not57 = icmp eq i64 %41, %43
  br i1 %.not57, label %.critedge.thread, label %44

44:                                               ; preds = %.lr.ph
  %45 = getelementptr inbounds i8, ptr %.04661, i64 -16
  %46 = add nsw i32 %39, -1
  %47 = icmp sgt i32 %39, 1
  br i1 %47, label %.lr.ph, label %.critedge.thread68, !llvm.loop !58

.critedge:                                        ; preds = %.critedge59
  %48 = icmp eq i32 %5, 0
  br i1 %48, label %.critedge.thread68, label %.critedge.thread

.critedge.thread68:                               ; preds = %44, %.critedge
  store i32 1431655765, ptr %4, align 8, !tbaa !47
  br label %51

.critedge.thread:                                 ; preds = %.lr.ph, %.critedge
  %49 = phi i32 [ %5, %.critedge ], [ %39, %.lr.ph ]
  %50 = add nsw i32 %49, -1
  store i32 %50, ptr %4, align 8, !tbaa !47
  tail call fastcc void @CORD_extend_path(ptr noundef nonnull %0)
  br label %51

51:                                               ; preds = %._crit_edge, %.critedge.thread, %.critedge.thread68
  ret void
}